target datalayout = "e-m:e-p270:32:32-p271:32:32-p272:64:64-i64:64-i128:128-f80:128-n8:16:32:64-S128"
target triple = "x86_64-pc-linux-gnu"

@hf_mpeg_descr_vbi_data_service_id = internal global i32 0, align 4
@hf_mpeg_descr_vbi_data_descr_len = internal global i32 0, align 4
@hf_mpeg_descr_vbi_data_reserved1 = internal global i32 0, align 4
@hf_mpeg_descr_vbi_data_field_parity = internal global i32 0, align 4
@hf_mpeg_descr_vbi_data_line_offset = internal global i32 0, align 4
@hf_mpeg_descr_vbi_data_reserved2 = internal global i32 0, align 4
@ett_mpeg_descriptor_vbi_data_service = internal global i32 0, align 4
@.str.747 = private unnamed_addr constant [15 x i8] c"Service 0x%02x\00", align 1

; Function Attrs: null_pointer_is_valid sspstrong uwtable
define internal void @proto_mpeg_descriptor_dissect_vbi_data(ptr noundef %0, i32 noundef %1, i32 noundef %2, ptr noundef %3) #1 {
  %5 = alloca ptr, align 8
  %6 = alloca i32, align 4
  %7 = alloca i32, align 4
  %8 = alloca ptr, align 8
  %9 = alloca i8, align 1
  %10 = alloca i8, align 1
  %11 = alloca i32, align 4
  %12 = alloca i32, align 4
  %13 = alloca ptr, align 8
  store ptr %0, ptr %5, align 8
  store i32 %1, ptr %6, align 4
  store i32 %2, ptr %7, align 4
  store ptr %3, ptr %8, align 8
  call void @llvm.lifetime.start.p0(i64 1, ptr %9) #4
  call void @llvm.lifetime.start.p0(i64 1, ptr %10) #4
  call void @llvm.lifetime.start.p0(i64 4, ptr %11) #4
  %14 = load i32, ptr %6, align 4
  %15 = load i32, ptr %7, align 4
  %16 = add i32 %14, %15
  store i32 %16, ptr %11, align 4
  call void @llvm.lifetime.start.p0(i64 4, ptr %12) #4
  call void @llvm.lifetime.start.p0(i64 8, ptr %13) #4
  br label %17

17:                                               ; preds = %95, %4
  %18 = load i32, ptr %6, align 4
  %19 = load i32, ptr %11, align 4
  %20 = icmp ult i32 %18, %19
  br i1 %20, label %21, label %96

21:                                               ; preds = %17
  %22 = load ptr, ptr %5, align 8
  %23 = load i32, ptr %6, align 4
  %24 = call zeroext i8 @tvb_get_uint8(ptr noundef %22, i32 noundef %23)
  store i8 %24, ptr %9, align 1
  %25 = load ptr, ptr %5, align 8
  %26 = load i32, ptr %6, align 4
  %27 = add i32 %26, 1
  %28 = call zeroext i8 @tvb_get_uint8(ptr noundef %25, i32 noundef %27)
  store i8 %28, ptr %10, align 1
  %29 = load ptr, ptr %8, align 8
  %30 = load ptr, ptr %5, align 8
  %31 = load i32, ptr %6, align 4
  %32 = load i8, ptr %10, align 1
  %33 = zext i8 %32 to i32
  %34 = add i32 %33, 2
  %35 = load i32, ptr @ett_mpeg_descriptor_vbi_data_service, align 4
  %36 = load i8, ptr %9, align 1
  %37 = zext i8 %36 to i32
  %38 = call ptr (ptr, ptr, i32, i32, i32, ptr, ptr, ...) @proto_tree_add_subtree_format(ptr noundef %29, ptr noundef %30, i32 noundef %31, i32 noundef %34, i32 noundef %35, ptr noundef null, ptr noundef @.str.747, i32 noundef %37)
  store ptr %38, ptr %13, align 8
  %39 = load ptr, ptr %13, align 8
  %40 = load i32, ptr @hf_mpeg_descr_vbi_data_service_id, align 4
  %41 = load ptr, ptr %5, align 8
  %42 = load i32, ptr %6, align 4
  %43 = call ptr @proto_tree_add_item(ptr noundef %39, i32 noundef %40, ptr noundef %41, i32 noundef %42, i32 noundef 1, i32 noundef 0)
  %44 = load i32, ptr %6, align 4
  %45 = add i32 %44, 1
  store i32 %45, ptr %6, align 4
  %46 = load ptr, ptr %13, align 8
  %47 = load i32, ptr @hf_mpeg_descr_vbi_data_descr_len, align 4
  %48 = load ptr, ptr %5, align 8
  %49 = load i32, ptr %6, align 4
  %50 = call ptr @proto_tree_add_item(ptr noundef %46, i32 noundef %47, ptr noundef %48, i32 noundef %49, i32 noundef 1, i32 noundef 0)
  %51 = load i32, ptr %6, align 4
  %52 = add i32 %51, 1
  store i32 %52, ptr %6, align 4
  %53 = load i8, ptr %9, align 1
  %54 = zext i8 %53 to i32
  switch i32 %54, label %83 [
    i32 1, label %55
    i32 2, label %55
    i32 4, label %55
    i32 5, label %55
    i32 6, label %55
    i32 7, label %55
  ]

55:                                               ; preds = %21, %21, %21, %21, %21, %21
  %56 = load i32, ptr %6, align 4
  %57 = load i8, ptr %10, align 1
  %58 = zext i8 %57 to i32
  %59 = add i32 %56, %58
  store i32 %59, ptr %12, align 4
  br label %60

60:                                               ; preds = %64, %55
  %61 = load i32, ptr %6, align 4
  %62 = load i32, ptr %12, align 4
  %63 = icmp ult i32 %61, %62
  br i1 %63, label %64, label %82

64:                                               ; preds = %60
  %65 = load ptr, ptr %13, align 8
  %66 = load i32, ptr @hf_mpeg_descr_vbi_data_reserved1, align 4
  %67 = load ptr, ptr %5, align 8
  %68 = load i32, ptr %6, align 4
  %69 = call ptr @proto_tree_add_item(ptr noundef %65, i32 noundef %66, ptr noundef %67, i32 noundef %68, i32 noundef 1, i32 noundef 0)
  %70 = load ptr, ptr %13, align 8
  %71 = load i32, ptr @hf_mpeg_descr_vbi_data_field_parity, align 4
  %72 = load ptr, ptr %5, align 8
  %73 = load i32, ptr %6, align 4
  %74 = call ptr @proto_tree_add_item(ptr noundef %70, i32 noundef %71, ptr noundef %72, i32 noundef %73, i32 noundef 1, i32 noundef 0)
  %75 = load ptr, ptr %13, align 8
  %76 = load i32, ptr @hf_mpeg_descr_vbi_data_line_offset, align 4
  %77 = load ptr, ptr %5, align 8
  %78 = load i32, ptr %6, align 4
  %79 = call ptr @proto_tree_add_item(ptr noundef %75, i32 noundef %76, ptr noundef %77, i32 noundef %78, i32 noundef 1, i32 noundef 0)
  %80 = load i32, ptr %6, align 4
  %81 = add i32 %80, 1
  store i32 %81, ptr %6, align 4
  br label %60, !llvm.loop !9

82:                                               ; preds = %60
  br label %95

83:                                               ; preds = %21
  %84 = load ptr, ptr %13, align 8
  %85 = load i32, ptr @hf_mpeg_descr_vbi_data_reserved2, align 4
  %86 = load ptr, ptr %5, align 8
  %87 = load i32, ptr %6, align 4
  %88 = load i8, ptr %10, align 1
  %89 = zext i8 %88 to i32
  %90 = call ptr @proto_tree_add_item(ptr noundef %84, i32 noundef %85, ptr noundef %86, i32 noundef %87, i32 noundef %89, i32 noundef 0)
  %91 = load i8, ptr %10, align 1
  %92 = zext i8 %91 to i32
  %93 = load i32, ptr %6, align 4
  %94 = add i32 %93, %92
  store i32 %94, ptr %6, align 4
  br label %95

95:                                               ; preds = %83, %82
  br label %17, !llvm.loop !10

96:                                               ; preds = %17
  call void @llvm.lifetime.end.p0(i64 8, ptr %13) #4
  call void @llvm.lifetime.end.p0(i64 4, ptr %12) #4
  call void @llvm.lifetime.end.p0(i64 4, ptr %11) #4
  call void @llvm.lifetime.end.p0(i64 1, ptr %10) #4
  call void @llvm.lifetime.end.p0(i64 1, ptr %9) #4
  ret void
}