; Function Attrs: null_pointer_is_valid sspstrong uwtable
define internal fastcc void @proto_mpeg_descriptor_dissect_vbi_data(ptr noundef %0, i32 noundef %1, i32 noundef range(i32 1, 256) %2, ptr noundef %3) unnamed_addr #1 {
  %5 = add i32 %2, %1
  %6 = icmp ult i32 %1, %5
  br i1 %6, label %.lr.ph43, label %._crit_edge

.lr.ph43:                                         ; preds = %4, %.loopexit
  %.042 = phi i32 [ %.2, %.loopexit ], [ %1, %4 ]
  %7 = tail call zeroext i8 @tvb_get_uint8(ptr noundef %0, i32 noundef %.042)
  %8 = add nuw i32 %.042, 1
  %9 = tail call zeroext i8 @tvb_get_uint8(ptr noundef %0, i32 noundef %8)
  %10 = zext i8 %9 to i32
  %11 = add nuw nsw i32 %10, 2
  %12 = load i32, ptr @ett_mpeg_descriptor_vbi_data_service, align 4
  %13 = zext i8 %7 to i32
  %14 = tail call ptr (ptr, ptr, i32, i32, i32, ptr, ptr, ...) @proto_tree_add_subtree_format(ptr noundef %3, ptr noundef %0, i32 noundef %.042, i32 noundef %11, i32 noundef %12, ptr noundef null, ptr noundef nonnull @.str.747, i32 noundef %13)
  %15 = load i32, ptr @hf_mpeg_descr_vbi_data_service_id, align 4
  %16 = tail call ptr @proto_tree_add_item(ptr noundef %14, i32 noundef %15, ptr noundef %0, i32 noundef %.042, i32 noundef 1, i32 noundef 0)
  %17 = load i32, ptr @hf_mpeg_descr_vbi_data_descr_len, align 4
  %18 = tail call ptr @proto_tree_add_item(ptr noundef %14, i32 noundef %17, ptr noundef %0, i32 noundef %8, i32 noundef 1, i32 noundef 0)
  %19 = add i32 %.042, 2
  switch i8 %7, label %30 [
    i8 1, label %20
    i8 2, label %20
    i8 4, label %20
    i8 5, label %20
    i8 6, label %20
    i8 7, label %20
  ]

20:                                               ; preds = %.lr.ph43, %.lr.ph43, %.lr.ph43, %.lr.ph43, %.lr.ph43, %.lr.ph43
  %21 = add i32 %19, %10
  %22 = icmp ult i32 %19, %21
  br i1 %22, label %.lr.ph, label %.loopexit

.lr.ph:                                           ; preds = %20, %.lr.ph
  %.141 = phi i32 [ %29, %.lr.ph ], [ %19, %20 ]
  %23 = load i32, ptr @hf_mpeg_descr_vbi_data_reserved1, align 4
  %24 = tail call ptr @proto_tree_add_item(ptr noundef %14, i32 noundef %23, ptr noundef %0, i32 noundef %.141, i32 noundef 1, i32 noundef 0)
  %25 = load i32, ptr @hf_mpeg_descr_vbi_data_field_parity, align 4
  %26 = tail call ptr @proto_tree_add_item(ptr noundef %14, i32 noundef %25, ptr noundef %0, i32 noundef %.141, i32 noundef 1, i32 noundef 0)
  %27 = load i32, ptr @hf_mpeg_descr_vbi_data_line_offset, align 4
  %28 = tail call ptr @proto_tree_add_item(ptr noundef %14, i32 noundef %27, ptr noundef %0, i32 noundef %.141, i32 noundef 1, i32 noundef 0)
  %29 = add i32 %.141, 1
  %exitcond.not = icmp eq i32 %29, %21
  br i1 %exitcond.not, label %.loopexit, label %.lr.ph, !llvm.loop !9

30:                                               ; preds = %.lr.ph43
  %31 = load i32, ptr @hf_mpeg_descr_vbi_data_reserved2, align 4
  %32 = tail call ptr @proto_tree_add_item(ptr noundef %14, i32 noundef %31, ptr noundef %0, i32 noundef %19, i32 noundef %10, i32 noundef 0)
  %33 = add i32 %19, %10
  br label %.loopexit

.loopexit:                                        ; preds = %.lr.ph, %20, %30
  %.2 = phi i32 [ %33, %30 ], [ %19, %20 ], [ %21, %.lr.ph ]
  %34 = icmp ult i32 %.2, %5
  br i1 %34, label %.lr.ph43, label %._crit_edge, !llvm.loop !10

._crit_edge:                                      ; preds = %.loopexit, %4
  ret void
}